; Function Attrs: mustprogress uwtable
define hidden void @_ZN4cvc58internal6theory7strings10NormalForm7reverseEv(ptr noundef nonnull align 8 captures(none) dereferenceable(112) %0) local_unnamed_addr #3 align 2 {
  %2 = getelementptr inbounds nuw i8, ptr %0, i64 8
  %3 = load ptr, ptr %2, align 8, !tbaa !40
  %4 = getelementptr inbounds nuw i8, ptr %0, i64 16
  %5 = load ptr, ptr %4, align 8, !tbaa !40
  %6 = icmp ne ptr %3, %5
  %.sroa.0.08.i.i = getelementptr inbounds i8, ptr %5, i64 -8
  %7 = icmp ult ptr %3, %.sroa.0.08.i.i
  %or.cond.i.i = select i1 %6, i1 %7, i1 false
  br i1 %or.cond.i.i, label %.lr.ph.i.i, label %_ZSt7reverseIN9__gnu_cxx17__normal_iteratorIPN4cvc58internal12NodeTemplateILb1EEESt6vectorIS5_SaIS5_EEEEEvT_SB_.exit

.lr.ph.i.i:                                       ; preds = %1, %.lr.ph.i.i
  %.sroa.0.010.i.i = phi ptr [ %.sroa.0.0.i.i, %.lr.ph.i.i ], [ %.sroa.0.08.i.i, %1 ]
  %.sroa.05.09.i.i = phi ptr [ %8, %.lr.ph.i.i ], [ %3, %1 ]
  tail call void @_ZSt4swapIN4cvc58internal12NodeTemplateILb1EEEENSt9enable_ifIXsr6__and_ISt6__not_ISt15__is_tuple_likeIT_EESt21is_move_constructibleIS7_ESt18is_move_assignableIS7_EEE5valueEvE4typeERS7_SG_(ptr noundef nonnull align 8 dereferenceable(8) %.sroa.05.09.i.i, ptr noundef nonnull align 8 dereferenceable(8) %.sroa.0.010.i.i)
  %8 = getelementptr inbounds nuw i8, ptr %.sroa.05.09.i.i, i64 8
  %.sroa.0.0.i.i = getelementptr inbounds i8, ptr %.sroa.0.010.i.i, i64 -8
  %9 = icmp ult ptr %8, %.sroa.0.0.i.i
  br i1 %9, label %.lr.ph.i.i, label %_ZSt7reverseIN9__gnu_cxx17__normal_iteratorIPN4cvc58internal12NodeTemplateILb1EEESt6vectorIS5_SaIS5_EEEEEvT_SB_.exit, !llvm.loop !41

_ZSt7reverseIN9__gnu_cxx17__normal_iteratorIPN4cvc58internal12NodeTemplateILb1EEESt6vectorIS5_SaIS5_EEEEEvT_SB_.exit: ; preds = %.lr.ph.i.i, %1
  %10 = getelementptr inbounds nuw i8, ptr %0, i64 32
  %11 = load i8, ptr %10, align 8, !tbaa !17, !range !42, !noundef !43
  %12 = xor i8 %11, 1
  store i8 %12, ptr %10, align 8, !tbaa !17
  ret void
}